target datalayout = "e-m:e-p270:32:32-p271:32:32-p272:64:64-i64:64-i128:128-f80:128-n8:16:32:64-S128"
target triple = "x86_64-pc-linux-gnu"

%"class.gmx::BiasGrid" = type { %"class.std::vector", %"class.std::vector.0" }
%"class.std::vector" = type { %"struct.std::_Vector_base" }
%"struct.std::_Vector_base" = type { %"struct.std::_Vector_base<gmx::GridPoint, std::allocator<gmx::GridPoint>>::_Vector_impl" }
%"struct.std::_Vector_base<gmx::GridPoint, std::allocator<gmx::GridPoint>>::_Vector_impl" = type { %"struct.std::_Vector_base<gmx::GridPoint, std::allocator<gmx::GridPoint>>::_Vector_impl_data" }
%"struct.std::_Vector_base<gmx::GridPoint, std::allocator<gmx::GridPoint>>::_Vector_impl_data" = type { ptr, ptr, ptr }
%"class.std::vector.0" = type { %"struct.std::_Vector_base.1" }
%"struct.std::_Vector_base.1" = type { %"struct.std::_Vector_base<gmx::GridAxis, std::allocator<gmx::GridAxis>>::_Vector_impl" }
%"struct.std::_Vector_base<gmx::GridAxis, std::allocator<gmx::GridAxis>>::_Vector_impl" = type { %"struct.std::_Vector_base<gmx::GridAxis, std::allocator<gmx::GridAxis>>::_Vector_impl_data" }
%"struct.std::_Vector_base<gmx::GridAxis, std::allocator<gmx::GridAxis>>::_Vector_impl_data" = type { ptr, ptr, ptr }
%"class.gmx::GridAxis" = type <{ double, double, double, double, i32, i32, i8, [7 x i8] }>
%"class.gmx::ArrayRef" = type { %"struct.gmx::ArrayRefIter", %"struct.gmx::ArrayRefIter" }
%"struct.gmx::ArrayRefIter" = type { ptr }

; Function Attrs: mustprogress nounwind uwtable
define linkonce_odr noundef ptr @_ZNK3gmx12ArrayRefIterIKNS_8GridAxisEE4dataEv(ptr noundef nonnull align 8 dereferenceable(8) %0) #1 comdat align 2 {
  %2 = alloca ptr, align 8
  store ptr %0, ptr %2, align 8
  %3 = load ptr, ptr %2, align 8
  %4 = getelementptr inbounds %"struct.gmx::ArrayRefIter", ptr %3, i32 0, i32 0
  %5 = load ptr, ptr %4, align 8
  ret ptr %5
}

; Function Attrs: mustprogress nounwind uwtable
define linkonce_odr noundef nonnull align 8 dereferenceable(41) ptr @_ZNK3gmx12ArrayRefIterIKNS_8GridAxisEEdeEv(ptr noundef nonnull align 8 dereferenceable(8) %0) #1 comdat align 2 {
  %2 = alloca ptr, align 8
  store ptr %0, ptr %2, align 8
  %3 = load ptr, ptr %2, align 8
  %4 = getelementptr inbounds %"struct.gmx::ArrayRefIter", ptr %3, i32 0, i32 0
  %5 = load ptr, ptr %4, align 8
  ret ptr %5
}

; Function Attrs: mustprogress nounwind uwtable
define linkonce_odr noundef nonnull align 8 dereferenceable(8) ptr @_ZN3gmx12ArrayRefIterIKNS_8GridAxisEEpLEl(ptr noundef nonnull align 8 dereferenceable(8) %0, i64 noundef %1) #1 comdat align 2 {
  %3 = alloca ptr, align 8
  %4 = alloca i64, align 8
  store ptr %0, ptr %3, align 8
  store i64 %1, ptr %4, align 8
  %5 = load ptr, ptr %3, align 8
  %6 = load i64, ptr %4, align 8
  %7 = getelementptr inbounds %"struct.gmx::ArrayRefIter", ptr %5, i32 0, i32 0
  %8 = load ptr, ptr %7, align 8
  %9 = getelementptr inbounds %"class.gmx::GridAxis", ptr %8, i64 %6
  store ptr %9, ptr %7, align 8
  ret ptr %5
}

; Function Attrs: mustprogress nounwind uwtable
define linkonce_odr noundef nonnull align 8 dereferenceable(8) ptr @_ZNK3gmx5boost14stl_interfaces2v118iterator_interfaceINS_12ArrayRefIterIKNS_8GridAxisEEESt26random_access_iterator_tagS6_RS6_PS6_lvE7derivedEv(ptr noundef nonnull align 1 dereferenceable(1) %0) #1 comdat align 2 {
  %2 = alloca ptr, align 8
  store ptr %0, ptr %2, align 8
  %3 = load ptr, ptr %2, align 8
  ret ptr %3
}

; Function Attrs: mustprogress nounwind uwtable
define linkonce_odr noundef ptr @_ZNKSt6vectorIN3gmx8GridAxisESaIS1_EE11_M_data_ptrIS1_EEPT_S6_(ptr noundef nonnull align 8 dereferenceable(24) %0, ptr noundef %1) #1 comdat align 2 {
  %3 = alloca ptr, align 8
  %4 = alloca ptr, align 8
  store ptr %0, ptr %3, align 8
  store ptr %1, ptr %4, align 8
  %5 = load ptr, ptr %4, align 8
  ret ptr %5
}

; Function Attrs: mustprogress nounwind uwtable
define noundef i32 @_ZN3gmx26multiDimArrayIndexToLinearEPKiiS1_(ptr noundef %0, i32 noundef %1, ptr noundef %2) #1 {
  %4 = alloca ptr, align 8
  %5 = alloca i32, align 4
  %6 = alloca ptr, align 8
  %7 = alloca i32, align 4
  %8 = alloca i32, align 4
  %9 = alloca i32, align 4
  store ptr %0, ptr %4, align 8
  store i32 %1, ptr %5, align 4
  store ptr %2, ptr %6, align 8
  store i32 1, ptr %7, align 4
  store i32 0, ptr %8, align 4
  %10 = load i32, ptr %5, align 4
  %11 = sub nsw i32 %10, 1
  store i32 %11, ptr %9, align 4
  br label %12

12:                                               ; preds = %32, %3
  %13 = load i32, ptr %9, align 4
  %14 = icmp sge i32 %13, 0
  br i1 %14, label %15, label %35

15:                                               ; preds = %12
  %16 = load i32, ptr %7, align 4
  %17 = load ptr, ptr %4, align 8
  %18 = load i32, ptr %9, align 4
  %19 = sext i32 %18 to i64
  %20 = getelementptr inbounds i32, ptr %17, i64 %19
  %21 = load i32, ptr %20, align 4
  %22 = mul nsw i32 %16, %21
  %23 = load i32, ptr %8, align 4
  %24 = add nsw i32 %23, %22
  store i32 %24, ptr %8, align 4
  %25 = load ptr, ptr %6, align 8
  %26 = load i32, ptr %9, align 4
  %27 = sext i32 %26 to i64
  %28 = getelementptr inbounds i32, ptr %25, i64 %27
  %29 = load i32, ptr %28, align 4
  %30 = load i32, ptr %7, align 4
  %31 = mul nsw i32 %30, %29
  store i32 %31, ptr %7, align 4
  br label %32

32:                                               ; preds = %15
  %33 = load i32, ptr %9, align 4
  %34 = add nsw i32 %33, -1
  store i32 %34, ptr %9, align 4
  br label %12, !llvm.loop !12

35:                                               ; preds = %12
  %36 = load i32, ptr %8, align 4
  ret i32 %36
}

; Function Attrs: mustprogress nounwind uwtable
define linkonce_odr noundef i32 @_ZNK3gmx8GridAxis9numPointsEv(ptr noundef nonnull align 8 dereferenceable(41) %0) #1 comdat align 2 {
  %2 = alloca ptr, align 8
  store ptr %0, ptr %2, align 8
  %3 = load ptr, ptr %2, align 8
  %4 = getelementptr inbounds %"class.gmx::GridAxis", ptr %3, i32 0, i32 4
  %5 = load i32, ptr %4, align 8
  ret i32 %5
}

; Function Attrs: mustprogress nounwind uwtable
define linkonce_odr noundef ptr @_ZNK3gmx8ArrayRefIKNS_8GridAxisEE4dataEv(ptr noundef nonnull align 8 dereferenceable(16) %0) #1 comdat align 2 {
  %2 = alloca ptr, align 8
  store ptr %0, ptr %2, align 8
  %3 = load ptr, ptr %2, align 8
  %4 = getelementptr inbounds %"class.gmx::ArrayRef", ptr %3, i32 0, i32 0
  %5 = call noundef ptr @_ZNK3gmx12ArrayRefIterIKNS_8GridAxisEE4dataEv(ptr noundef nonnull align 8 dereferenceable(8) %4) #12
  ret ptr %5
}

; Function Attrs: mustprogress nounwind uwtable
define linkonce_odr noundef nonnull align 8 dereferenceable(41) ptr @_ZNK3gmx5boost14stl_interfaces2v118iterator_interfaceINS_12ArrayRefIterIKNS_8GridAxisEEESt26random_access_iterator_tagS6_RS6_PS6_lvEixIS7_EEDTcmpLclsr3stdE7declvalIRT_EEfp_declsr3stdE7declvalISE_EEEl(ptr noundef nonnull align 1 dereferenceable(1) %0, i64 noundef %1) #1 comdat align 2 {
  %3 = alloca ptr, align 8
  %4 = alloca i64, align 8
  %5 = alloca %"struct.gmx::ArrayRefIter", align 8
  store ptr %0, ptr %3, align 8
  store i64 %1, ptr %4, align 8
  %6 = load ptr, ptr %3, align 8
  %7 = call noundef nonnull align 8 dereferenceable(8) ptr @_ZNK3gmx5boost14stl_interfaces2v118iterator_interfaceINS_12ArrayRefIterIKNS_8GridAxisEEESt26random_access_iterator_tagS6_RS6_PS6_lvE7derivedEv(ptr noundef nonnull align 1 dereferenceable(1) %6) #12
  call void @llvm.memcpy.p0.p0.i64(ptr align 8 %5, ptr align 8 %7, i64 8, i1 false)
  %8 = load i64, ptr %4, align 8
  %9 = call noundef nonnull align 8 dereferenceable(8) ptr @_ZN3gmx12ArrayRefIterIKNS_8GridAxisEEpLEl(ptr noundef nonnull align 8 dereferenceable(8) %5, i64 noundef %8) #12
  %10 = call noundef nonnull align 8 dereferenceable(41) ptr @_ZNK3gmx12ArrayRefIterIKNS_8GridAxisEEdeEv(ptr noundef nonnull align 8 dereferenceable(8) %5) #12
  ret ptr %10
}

; Function Attrs: mustprogress nounwind uwtable
define linkonce_odr noundef i64 @_ZNK3gmx12ArrayRefIterIKNS_8GridAxisEEmiES3_(ptr noundef nonnull align 8 dereferenceable(8) %0, ptr %1) #1 comdat align 2 {
  %3 = alloca %"struct.gmx::ArrayRefIter", align 8
  %4 = alloca ptr, align 8
  %5 = getelementptr inbounds %"struct.gmx::ArrayRefIter", ptr %3, i32 0, i32 0
  store ptr %1, ptr %5, align 8
  store ptr %0, ptr %4, align 8
  %6 = load ptr, ptr %4, align 8
  %7 = getelementptr inbounds %"struct.gmx::ArrayRefIter", ptr %6, i32 0, i32 0
  %8 = load ptr, ptr %7, align 8
  %9 = getelementptr inbounds %"struct.gmx::ArrayRefIter", ptr %3, i32 0, i32 0
  %10 = load ptr, ptr %9, align 8
  %11 = ptrtoint ptr %8 to i64
  %12 = ptrtoint ptr %10 to i64
  %13 = sub i64 %11, %12
  %14 = sdiv exact i64 %13, 48
  ret i64 %14
}

; Function Attrs: mustprogress nounwind uwtable
define linkonce_odr noundef i64 @_ZNKSt6vectorIN3gmx8GridAxisESaIS1_EE4sizeEv(ptr noundef nonnull align 8 dereferenceable(24) %0) #1 comdat align 2 {
  %2 = alloca ptr, align 8
  store ptr %0, ptr %2, align 8
  %3 = load ptr, ptr %2, align 8
  %4 = getelementptr inbounds %"struct.std::_Vector_base.1", ptr %3, i32 0, i32 0
  %5 = getelementptr inbounds %"struct.std::_Vector_base<gmx::GridAxis, std::allocator<gmx::GridAxis>>::_Vector_impl_data", ptr %4, i32 0, i32 1
  %6 = load ptr, ptr %5, align 8
  %7 = getelementptr inbounds %"struct.std::_Vector_base.1", ptr %3, i32 0, i32 0
  %8 = getelementptr inbounds %"struct.std::_Vector_base<gmx::GridAxis, std::allocator<gmx::GridAxis>>::_Vector_impl_data", ptr %7, i32 0, i32 0
  %9 = load ptr, ptr %8, align 8
  %10 = ptrtoint ptr %6 to i64
  %11 = ptrtoint ptr %9 to i64
  %12 = sub i64 %10, %11
  %13 = sdiv exact i64 %12, 48
  ret i64 %13
}

; Function Attrs: mustprogress nounwind uwtable
define linkonce_odr void @_ZN3gmx12ArrayRefIterIKNS_8GridAxisEEC2EPS2_(ptr noundef nonnull align 8 dereferenceable(8) %0, ptr noundef %1) unnamed_addr #1 comdat align 2 {
  %3 = alloca ptr, align 8
  %4 = alloca ptr, align 8
  store ptr %0, ptr %3, align 8
  store ptr %1, ptr %4, align 8
  %5 = load ptr, ptr %3, align 8
  %6 = getelementptr inbounds %"struct.gmx::ArrayRefIter", ptr %5, i32 0, i32 0
  %7 = load ptr, ptr %4, align 8
  store ptr %7, ptr %6, align 8
  ret void
}

; Function Attrs: mustprogress nounwind uwtable
define linkonce_odr noundef ptr @_ZNKSt6vectorIN3gmx8GridAxisESaIS1_EE4dataEv(ptr noundef nonnull align 8 dereferenceable(24) %0) #1 comdat align 2 {
  %2 = alloca ptr, align 8
  store ptr %0, ptr %2, align 8
  %3 = load ptr, ptr %2, align 8
  %4 = getelementptr inbounds %"struct.std::_Vector_base.1", ptr %3, i32 0, i32 0
  %5 = getelementptr inbounds %"struct.std::_Vector_base<gmx::GridAxis, std::allocator<gmx::GridAxis>>::_Vector_impl_data", ptr %4, i32 0, i32 0
  %6 = load ptr, ptr %5, align 8
  %7 = call noundef ptr @_ZNKSt6vectorIN3gmx8GridAxisESaIS1_EE11_M_data_ptrIS1_EEPT_S6_(ptr noundef nonnull align 8 dereferenceable(24) %3, ptr noundef %6) #12
  ret ptr %7
}

; Function Attrs: mustprogress uwtable
define internal noundef i32 @_ZN3gmx12_GLOBAL__N_125multiDimGridIndexToLinearENS_8ArrayRefIKNS_8GridAxisEEEPKi(ptr %0, ptr %1, ptr noundef %2) #0 {
  %4 = alloca %"class.gmx::ArrayRef", align 8
  %5 = alloca ptr, align 8
  %6 = alloca [4 x i32], align 16
  %7 = alloca i64, align 8
  %8 = getelementptr inbounds { ptr, ptr }, ptr %4, i32 0, i32 0
  store ptr %0, ptr %8, align 8
  %9 = getelementptr inbounds { ptr, ptr }, ptr %4, i32 0, i32 1
  store ptr %1, ptr %9, align 8
  store ptr %2, ptr %5, align 8
  call void @llvm.memset.p0.i64(ptr align 16 %6, i8 0, i64 16, i1 false)
  store i64 0, ptr %7, align 8
  br label %10

10:                                               ; preds = %20, %3
  %11 = load i64, ptr %7, align 8
  %12 = call noundef i64 @_ZNK3gmx8ArrayRefIKNS_8GridAxisEE4sizeEv(ptr noundef nonnull align 8 dereferenceable(16) %4)
  %13 = icmp ult i64 %11, %12
  br i1 %13, label %14, label %23

14:                                               ; preds = %10
  %15 = load i64, ptr %7, align 8
  %16 = call noundef nonnull align 8 dereferenceable(41) ptr @_ZNK3gmx8ArrayRefIKNS_8GridAxisEEixEm(ptr noundef nonnull align 8 dereferenceable(16) %4, i64 noundef %15)
  %17 = call noundef i32 @_ZNK3gmx8GridAxis9numPointsEv(ptr noundef nonnull align 8 dereferenceable(41) %16)
  %18 = load i64, ptr %7, align 8
  %19 = getelementptr inbounds [4 x i32], ptr %6, i64 0, i64 %18
  store i32 %17, ptr %19, align 4
  br label %20

20:                                               ; preds = %14
  %21 = load i64, ptr %7, align 8
  %22 = add i64 %21, 1
  store i64 %22, ptr %7, align 8
  br label %10, !llvm.loop !13

23:                                               ; preds = %10
  %24 = load ptr, ptr %5, align 8
  %25 = call noundef i64 @_ZNK3gmx8ArrayRefIKNS_8GridAxisEE4sizeEv(ptr noundef nonnull align 8 dereferenceable(16) %4)
  %26 = trunc i64 %25 to i32
  %27 = getelementptr inbounds [4 x i32], ptr %6, i64 0, i64 0
  %28 = call noundef i32 @_ZN3gmx26multiDimArrayIndexToLinearEPKiiS1_(ptr noundef %24, i32 noundef %26, ptr noundef %27)
  ret i32 %28
}

; Function Attrs: mustprogress uwtable
define linkonce_odr void @_ZN3gmx8ArrayRefIKNS_8GridAxisEEC2IRS3_vEEOT_(ptr noundef nonnull align 8 dereferenceable(16) %0, ptr noundef nonnull align 8 dereferenceable(16) %1) unnamed_addr #0 comdat align 2 {
  %3 = alloca ptr, align 8
  %4 = alloca ptr, align 8
  store ptr %0, ptr %3, align 8
  store ptr %1, ptr %4, align 8
  %5 = load ptr, ptr %3, align 8
  %6 = getelementptr inbounds %"class.gmx::ArrayRef", ptr %5, i32 0, i32 0
  %7 = load ptr, ptr %4, align 8
  %8 = call noundef ptr @_ZNK3gmx8ArrayRefIKNS_8GridAxisEE4dataEv(ptr noundef nonnull align 8 dereferenceable(16) %7)
  call void @_ZN3gmx12ArrayRefIterIKNS_8GridAxisEEC2EPS2_(ptr noundef nonnull align 8 dereferenceable(8) %6, ptr noundef %8) #12
  %9 = getelementptr inbounds %"class.gmx::ArrayRef", ptr %5, i32 0, i32 1
  %10 = load ptr, ptr %4, align 8
  %11 = call noundef ptr @_ZNK3gmx8ArrayRefIKNS_8GridAxisEE4dataEv(ptr noundef nonnull align 8 dereferenceable(16) %10)
  %12 = load ptr, ptr %4, align 8
  %13 = call noundef i64 @_ZNK3gmx8ArrayRefIKNS_8GridAxisEE4sizeEv(ptr noundef nonnull align 8 dereferenceable(16) %12)
  %14 = getelementptr inbounds %"class.gmx::GridAxis", ptr %11, i64 %13
  call void @_ZN3gmx12ArrayRefIterIKNS_8GridAxisEEC2EPS2_(ptr noundef nonnull align 8 dereferenceable(8) %9, ptr noundef %14) #12
  ret void
}

; Function Attrs: mustprogress nounwind uwtable
define linkonce_odr noundef nonnull align 8 dereferenceable(41) ptr @_ZNK3gmx8ArrayRefIKNS_8GridAxisEEixEm(ptr noundef nonnull align 8 dereferenceable(16) %0, i64 noundef %1) #1 comdat align 2 {
  %3 = alloca ptr, align 8
  %4 = alloca i64, align 8
  store ptr %0, ptr %3, align 8
  store i64 %1, ptr %4, align 8
  %5 = load ptr, ptr %3, align 8
  %6 = getelementptr inbounds %"class.gmx::ArrayRef", ptr %5, i32 0, i32 0
  %7 = load i64, ptr %4, align 8
  %8 = call noundef nonnull align 8 dereferenceable(41) ptr @_ZNK3gmx5boost14stl_interfaces2v118iterator_interfaceINS_12ArrayRefIterIKNS_8GridAxisEEESt26random_access_iterator_tagS6_RS6_PS6_lvEixIS7_EEDTcmpLclsr3stdE7declvalIRT_EEfp_declsr3stdE7declvalISE_EEEl(ptr noundef nonnull align 1 dereferenceable(1) %6, i64 noundef %7) #12
  ret ptr %8
}

; Function Attrs: mustprogress nounwind uwtable
define linkonce_odr noundef i64 @_ZNK3gmx8ArrayRefIKNS_8GridAxisEE4sizeEv(ptr noundef nonnull align 8 dereferenceable(16) %0) #1 comdat align 2 {
  %2 = alloca ptr, align 8
  %3 = alloca %"struct.gmx::ArrayRefIter", align 8
  store ptr %0, ptr %2, align 8
  %4 = load ptr, ptr %2, align 8
  %5 = getelementptr inbounds %"class.gmx::ArrayRef", ptr %4, i32 0, i32 1
  %6 = getelementptr inbounds %"class.gmx::ArrayRef", ptr %4, i32 0, i32 0
  call void @llvm.memcpy.p0.p0.i64(ptr align 8 %3, ptr align 8 %6, i64 8, i1 false)
  %7 = getelementptr inbounds %"struct.gmx::ArrayRefIter", ptr %3, i32 0, i32 0
  %8 = load ptr, ptr %7, align 8
  %9 = call noundef i64 @_ZNK3gmx12ArrayRefIterIKNS_8GridAxisEEmiES3_(ptr noundef nonnull align 8 dereferenceable(8) %5, ptr %8) #12
  ret i64 %9
}

; Function Attrs: mustprogress nounwind uwtable
define linkonce_odr void @_ZN3gmx8ArrayRefIKNS_8GridAxisEEC2IRKSt6vectorIS1_SaIS1_EEvEEOT_(ptr noundef nonnull align 8 dereferenceable(16) %0, ptr noundef nonnull align 8 dereferenceable(24) %1) unnamed_addr #1 comdat align 2 {
  %3 = alloca ptr, align 8
  %4 = alloca ptr, align 8
  store ptr %0, ptr %3, align 8
  store ptr %1, ptr %4, align 8
  %5 = load ptr, ptr %3, align 8
  %6 = getelementptr inbounds %"class.gmx::ArrayRef", ptr %5, i32 0, i32 0
  %7 = load ptr, ptr %4, align 8
  %8 = call noundef ptr @_ZNKSt6vectorIN3gmx8GridAxisESaIS1_EE4dataEv(ptr noundef nonnull align 8 dereferenceable(24) %7) #12
  call void @_ZN3gmx12ArrayRefIterIKNS_8GridAxisEEC2EPS2_(ptr noundef nonnull align 8 dereferenceable(8) %6, ptr noundef %8) #12
  %9 = getelementptr inbounds %"class.gmx::ArrayRef", ptr %5, i32 0, i32 1
  %10 = load ptr, ptr %4, align 8
  %11 = call noundef ptr @_ZNKSt6vectorIN3gmx8GridAxisESaIS1_EE4dataEv(ptr noundef nonnull align 8 dereferenceable(24) %10) #12
  %12 = load ptr, ptr %4, align 8
  %13 = call noundef i64 @_ZNKSt6vectorIN3gmx8GridAxisESaIS1_EE4sizeEv(ptr noundef nonnull align 8 dereferenceable(24) %12) #12
  %14 = getelementptr inbounds %"class.gmx::GridAxis", ptr %11, i64 %13
  call void @_ZN3gmx12ArrayRefIterIKNS_8GridAxisEEC2EPS2_(ptr noundef nonnull align 8 dereferenceable(8) %9, ptr noundef %14) #12
  ret void
}

; Function Attrs: mustprogress uwtable
define internal noundef i32 @_ZN3gmxL21getNearestIndexInGridEPKdNS_8ArrayRefIKNS_8GridAxisEEE(ptr noundef %0, ptr %1, ptr %2) #0 {
  %4 = alloca %"class.gmx::ArrayRef", align 8
  %5 = alloca ptr, align 8
  %6 = alloca [4 x i32], align 16
  %7 = alloca i64, align 8
  %8 = alloca %"class.gmx::ArrayRef", align 8
  %9 = getelementptr inbounds { ptr, ptr }, ptr %4, i32 0, i32 0
  store ptr %1, ptr %9, align 8
  %10 = getelementptr inbounds { ptr, ptr }, ptr %4, i32 0, i32 1
  store ptr %2, ptr %10, align 8
  store ptr %0, ptr %5, align 8
  store i64 0, ptr %7, align 8
  br label %11

11:                                               ; preds = %25, %3
  %12 = load i64, ptr %7, align 8
  %13 = call noundef i64 @_ZNK3gmx8ArrayRefIKNS_8GridAxisEE4sizeEv(ptr noundef nonnull align 8 dereferenceable(16) %4)
  %14 = icmp ult i64 %12, %13
  br i1 %14, label %15, label %28

15:                                               ; preds = %11
  %16 = load i64, ptr %7, align 8
  %17 = call noundef nonnull align 8 dereferenceable(41) ptr @_ZNK3gmx8ArrayRefIKNS_8GridAxisEEixEm(ptr noundef nonnull align 8 dereferenceable(16) %4, i64 noundef %16)
  %18 = load ptr, ptr %5, align 8
  %19 = load i64, ptr %7, align 8
  %20 = getelementptr inbounds double, ptr %18, i64 %19
  %21 = load double, ptr %20, align 8
  %22 = call noundef i32 @_ZNK3gmx8GridAxis12nearestIndexEd(ptr noundef nonnull align 8 dereferenceable(41) %17, double noundef %21)
  %23 = load i64, ptr %7, align 8
  %24 = getelementptr inbounds [4 x i32], ptr %6, i64 0, i64 %23
  store i32 %22, ptr %24, align 4
  br label %25

25:                                               ; preds = %15
  %26 = load i64, ptr %7, align 8
  %27 = add i64 %26, 1
  store i64 %27, ptr %7, align 8
  br label %11, !llvm.loop !21

28:                                               ; preds = %11
  call void @_ZN3gmx8ArrayRefIKNS_8GridAxisEEC2IRS3_vEEOT_(ptr noundef nonnull align 8 dereferenceable(16) %8, ptr noundef nonnull align 8 dereferenceable(16) %4)
  %29 = getelementptr inbounds [4 x i32], ptr %6, i64 0, i64 0
  %30 = getelementptr inbounds { ptr, ptr }, ptr %8, i32 0, i32 0
  %31 = load ptr, ptr %30, align 8
  %32 = getelementptr inbounds { ptr, ptr }, ptr %8, i32 0, i32 1
  %33 = load ptr, ptr %32, align 8
  %34 = call noundef i32 @_ZN3gmx12_GLOBAL__N_125multiDimGridIndexToLinearENS_8ArrayRefIKNS_8GridAxisEEEPKi(ptr %31, ptr %33, ptr noundef %29)
  ret i32 %34
}

; Function Attrs: mustprogress uwtable
define linkonce_odr { ptr, ptr } @_ZNK3gmx8BiasGrid4axisEv(ptr noundef nonnull align 8 dereferenceable(48) %0) #0 comdat align 2 {
  %2 = alloca %"class.gmx::ArrayRef", align 8
  %3 = alloca ptr, align 8
  store ptr %0, ptr %3, align 8
  %4 = load ptr, ptr %3, align 8
  %5 = getelementptr inbounds %"class.gmx::BiasGrid", ptr %4, i32 0, i32 1
  call void @_ZN3gmx8ArrayRefIKNS_8GridAxisEEC2IRKSt6vectorIS1_SaIS1_EEvEEOT_(ptr noundef nonnull align 8 dereferenceable(16) %2, ptr noundef nonnull align 8 dereferenceable(24) %5)
  %6 = load { ptr, ptr }, ptr %2, align 8
  ret { ptr, ptr } %6
}

; Function Attrs: mustprogress uwtable
define noundef i32 @_ZNK3gmx8BiasGrid12nearestIndexEPKd(ptr noundef nonnull align 8 dereferenceable(48) %0, ptr noundef %1) #0 align 2 {
  %3 = alloca ptr, align 8
  %4 = alloca ptr, align 8
  %5 = alloca %"class.gmx::ArrayRef", align 8
  store ptr %0, ptr %3, align 8
  store ptr %1, ptr %4, align 8
  %6 = load ptr, ptr %3, align 8
  %7 = load ptr, ptr %4, align 8
  %8 = call { ptr, ptr } @_ZNK3gmx8BiasGrid4axisEv(ptr noundef nonnull align 8 dereferenceable(48) %6)
  %9 = getelementptr inbounds { ptr, ptr }, ptr %5, i32 0, i32 0
  %10 = extractvalue { ptr, ptr } %8, 0
  store ptr %10, ptr %9, align 8
  %11 = getelementptr inbounds { ptr, ptr }, ptr %5, i32 0, i32 1
  %12 = extractvalue { ptr, ptr } %8, 1
  store ptr %12, ptr %11, align 8
  %13 = getelementptr inbounds { ptr, ptr }, ptr %5, i32 0, i32 0
  %14 = load ptr, ptr %13, align 8
  %15 = getelementptr inbounds { ptr, ptr }, ptr %5, i32 0, i32 1
  %16 = load ptr, ptr %15, align 8
  %17 = call noundef i32 @_ZN3gmxL21getNearestIndexInGridEPKdNS_8ArrayRefIKNS_8GridAxisEEE(ptr noundef %7, ptr %14, ptr %16)
  ret i32 %17
}