; Function Attrs: mustprogress uwtable
define noundef i32 @_ZNK3gmx8BiasGrid12nearestIndexEPKd(ptr nocapture noundef nonnull readonly align 8 dereferenceable(48) %0, ptr nocapture noundef readonly %1) local_unnamed_addr #6 align 2 {
  %3 = alloca [4 x i32], align 16
  %4 = alloca [4 x i32], align 16
  %5 = getelementptr inbounds i8, ptr %0, i64 24
  %6 = load ptr, ptr %5, align 8
  %7 = getelementptr inbounds i8, ptr %0, i64 32
  %8 = load ptr, ptr %7, align 8
  %9 = ptrtoint ptr %6 to i64
  call void @llvm.lifetime.start.p0(i64 16, ptr nonnull %4)
  %10 = ptrtoint ptr %8 to i64
  %11 = sub i64 %10, %9
  %12 = sdiv exact i64 %11, 48
  %.not.i = icmp eq ptr %8, %6
  br i1 %.not.i, label %._crit_edge.thread.i, label %.lr.ph.preheader.i

._crit_edge.thread.i:                             ; preds = %2
  call void @llvm.lifetime.start.p0(i64 16, ptr nonnull %3)
  call void @llvm.memset.p0.i64(ptr noundef nonnull align 16 dereferenceable(16) %3, i8 0, i64 16, i1 false)
  br label %._crit_edge.i.i

.lr.ph.preheader.i:                               ; preds = %2
  %umax.i = tail call i64 @llvm.umax.i64(i64 %12, i64 1)
  br label %.lr.ph.i

.lr.ph.i:                                         ; preds = %.lr.ph.i, %.lr.ph.preheader.i
  %.08.i = phi i64 [ %18, %.lr.ph.i ], [ 0, %.lr.ph.preheader.i ]
  %13 = getelementptr inbounds %"class.gmx::GridAxis", ptr %6, i64 %.08.i
  %14 = getelementptr inbounds double, ptr %1, i64 %.08.i
  %15 = load double, ptr %14, align 8
  %16 = tail call noundef i32 @_ZNK3gmx8GridAxis12nearestIndexEd(ptr noundef nonnull align 8 dereferenceable(41) %13, double noundef %15)
  %17 = getelementptr inbounds [4 x i32], ptr %4, i64 0, i64 %.08.i
  store i32 %16, ptr %17, align 4
  %18 = add nuw i64 %.08.i, 1
  %exitcond.not.i = icmp eq i64 %18, %umax.i
  br i1 %exitcond.not.i, label %.lr.ph.preheader.i.i, label %.lr.ph.i, !llvm.loop !21

.lr.ph.preheader.i.i:                             ; preds = %.lr.ph.i
  call void @llvm.lifetime.start.p0(i64 16, ptr nonnull %3)
  call void @llvm.memset.p0.i64(ptr noundef nonnull align 16 dereferenceable(16) %3, i8 0, i64 16, i1 false)
  br label %.lr.ph.i.i

.lr.ph.i.i:                                       ; preds = %.lr.ph.i.i, %.lr.ph.preheader.i.i
  %.07.i.i = phi i64 [ %22, %.lr.ph.i.i ], [ 0, %.lr.ph.preheader.i.i ]
  %19 = getelementptr inbounds %"class.gmx::GridAxis", ptr %6, i64 %.07.i.i, i32 4
  %20 = load i32, ptr %19, align 8
  %21 = getelementptr inbounds [4 x i32], ptr %3, i64 0, i64 %.07.i.i
  store i32 %20, ptr %21, align 4
  %22 = add nuw i64 %.07.i.i, 1
  %exitcond.not.i.i = icmp eq i64 %22, %umax.i
  br i1 %exitcond.not.i.i, label %._crit_edge.i.i, label %.lr.ph.i.i, !llvm.loop !13

._crit_edge.i.i:                                  ; preds = %.lr.ph.i.i, %._crit_edge.thread.i
  %23 = trunc i64 %12 to i32
  %24 = icmp sgt i32 %23, 0
  br i1 %24, label %.lr.ph.preheader.i.i.i, label %_ZN3gmxL21getNearestIndexInGridEPKdNS_8ArrayRefIKNS_8GridAxisEEE.exit

.lr.ph.preheader.i.i.i:                           ; preds = %._crit_edge.i.i
  %25 = and i64 %12, 2147483647
  br label %.lr.ph.i.i.i

.lr.ph.i.i.i:                                     ; preds = %.lr.ph.i.i.i, %.lr.ph.preheader.i.i.i
  %indvars.iv.i.i.i = phi i64 [ %25, %.lr.ph.preheader.i.i.i ], [ %indvars.iv.next.i.i.i, %.lr.ph.i.i.i ]
  %.01013.i.i.i = phi i32 [ 0, %.lr.ph.preheader.i.i.i ], [ %29, %.lr.ph.i.i.i ]
  %.01112.i.i.i = phi i32 [ 1, %.lr.ph.preheader.i.i.i ], [ %32, %.lr.ph.i.i.i ]
  %indvars.iv.next.i.i.i = add nsw i64 %indvars.iv.i.i.i, -1
  %26 = getelementptr inbounds i32, ptr %4, i64 %indvars.iv.next.i.i.i
  %27 = load i32, ptr %26, align 4
  %28 = mul nsw i32 %27, %.01112.i.i.i
  %29 = add nsw i32 %28, %.01013.i.i.i
  %30 = getelementptr inbounds i32, ptr %3, i64 %indvars.iv.next.i.i.i
  %31 = load i32, ptr %30, align 4
  %32 = mul nsw i32 %31, %.01112.i.i.i
  %33 = icmp ugt i64 %indvars.iv.i.i.i, 1
  br i1 %33, label %.lr.ph.i.i.i, label %_ZN3gmxL21getNearestIndexInGridEPKdNS_8ArrayRefIKNS_8GridAxisEEE.exit, !llvm.loop !12

_ZN3gmxL21getNearestIndexInGridEPKdNS_8ArrayRefIKNS_8GridAxisEEE.exit: ; preds = %.lr.ph.i.i.i, %._crit_edge.i.i
  %.010.lcssa.i.i.i = phi i32 [ 0, %._crit_edge.i.i ], [ %29, %.lr.ph.i.i.i ]
  call void @llvm.lifetime.end.p0(i64 16, ptr nonnull %3)
  call void @llvm.lifetime.end.p0(i64 16, ptr nonnull %4)
  ret i32 %.010.lcssa.i.i.i
}